target datalayout = "e-m:e-p270:32:32-p271:32:32-p272:64:64-i64:64-i128:128-f80:128-n8:16:32:64-S128"
target triple = "x86_64-pc-linux-gnu"

%struct.jpeg_decompress_struct = type { ptr, ptr, ptr, ptr, i32, i32, ptr, i32, i32, i32, i32, i32, i32, i32, double, i32, i32, i32, i32, i32, i32, i32, i32, i32, i32, i32, i32, i32, i32, i32, i32, i32, i32, ptr, i32, i32, i32, i32, i32, ptr, [4 x ptr], [4 x ptr], [4 x ptr], i32, ptr, i32, i32, [16 x i8], [16 x i8], [16 x i8], i32, i32, i8, i8, i8, i16, i16, i32, i8, i32, ptr, i32, i32, i32, i32, ptr, i32, [4 x ptr], i32, i32, i32, [10 x i32], i32, i32, i32, i32, i32, ptr, ptr, ptr, ptr, ptr, ptr, ptr, ptr, ptr, ptr, ptr }
%struct.gif_dest_struct = type { %struct.djpeg_dest_struct, ptr, i32, i16, i32, i32, i32, i16, i32, i16, i16, i16, i16, ptr, ptr, i32, [256 x i8] }
%struct.djpeg_dest_struct = type { ptr, ptr, ptr, ptr, ptr, ptr, ptr, ptr, i32 }

; Function Attrs: nounwind uwtable
define internal void @put_raw_pixel_rows(ptr noundef %0, ptr noundef %1, i32 noundef %2) #0 {
  %4 = alloca ptr, align 8
  %5 = alloca ptr, align 8
  %6 = alloca i32, align 4
  %7 = alloca ptr, align 8
  %8 = alloca ptr, align 8
  %9 = alloca i32, align 4
  %10 = alloca i16, align 2
  store ptr %0, ptr %4, align 8, !tbaa !4
  store ptr %1, ptr %5, align 8, !tbaa !65
  store i32 %2, ptr %6, align 4, !tbaa !9
  call void @llvm.lifetime.start.p0(i64 8, ptr %7) #5
  %11 = load ptr, ptr %5, align 8, !tbaa !65
  store ptr %11, ptr %7, align 8, !tbaa !43
  call void @llvm.lifetime.start.p0(i64 8, ptr %8) #5
  call void @llvm.lifetime.start.p0(i64 4, ptr %9) #5
  call void @llvm.lifetime.start.p0(i64 2, ptr %10) #5
  %12 = load ptr, ptr %7, align 8, !tbaa !43
  %13 = getelementptr inbounds nuw %struct.gif_dest_struct, ptr %12, i32 0, i32 0
  %14 = getelementptr inbounds nuw %struct.djpeg_dest_struct, ptr %13, i32 0, i32 5
  %15 = load ptr, ptr %14, align 8, !tbaa !59
  %16 = getelementptr inbounds ptr, ptr %15, i64 0
  %17 = load ptr, ptr %16, align 8, !tbaa !70
  store ptr %17, ptr %8, align 8, !tbaa !70
  %18 = load ptr, ptr %4, align 8, !tbaa !4
  %19 = getelementptr inbounds nuw %struct.jpeg_decompress_struct, ptr %18, i32 0, i32 27
  %20 = load i32, ptr %19, align 8, !tbaa !58
  store i32 %20, ptr %9, align 4, !tbaa !9
  br label %21

21:                                               ; preds = %59, %3
  %22 = load i32, ptr %9, align 4, !tbaa !9
  %23 = icmp ugt i32 %22, 0
  br i1 %23, label %24, label %62

24:                                               ; preds = %21
  %25 = load ptr, ptr %8, align 8, !tbaa !70
  %26 = getelementptr inbounds nuw i8, ptr %25, i32 1
  store ptr %26, ptr %8, align 8, !tbaa !70
  %27 = load i8, ptr %25, align 1, !tbaa !38
  %28 = zext i8 %27 to i16
  store i16 %28, ptr %10, align 2, !tbaa !71
  %29 = load ptr, ptr %7, align 8, !tbaa !43
  %30 = load i16, ptr %10, align 2, !tbaa !71
  call void @output(ptr noundef %29, i16 noundef signext %30)
  %31 = load ptr, ptr %7, align 8, !tbaa !43
  %32 = getelementptr inbounds nuw %struct.gif_dest_struct, ptr %31, i32 0, i32 12
  %33 = load i16, ptr %32, align 2, !tbaa !77
  %34 = sext i16 %33 to i32
  %35 = load ptr, ptr %7, align 8, !tbaa !43
  %36 = getelementptr inbounds nuw %struct.gif_dest_struct, ptr %35, i32 0, i32 3
  %37 = load i16, ptr %36, align 4, !tbaa !78
  %38 = sext i16 %37 to i32
  %39 = icmp slt i32 %34, %38
  br i1 %39, label %40, label %45

40:                                               ; preds = %24
  %41 = load ptr, ptr %7, align 8, !tbaa !43
  %42 = getelementptr inbounds nuw %struct.gif_dest_struct, ptr %41, i32 0, i32 12
  %43 = load i16, ptr %42, align 2, !tbaa !77
  %44 = add i16 %43, 1
  store i16 %44, ptr %42, align 2, !tbaa !77
  br label %58

45:                                               ; preds = %24
  %46 = load ptr, ptr %7, align 8, !tbaa !43
  %47 = load ptr, ptr %7, align 8, !tbaa !43
  %48 = getelementptr inbounds nuw %struct.gif_dest_struct, ptr %47, i32 0, i32 9
  %49 = load i16, ptr %48, align 4, !tbaa !79
  call void @output(ptr noundef %46, i16 noundef signext %49)
  %50 = load ptr, ptr %7, align 8, !tbaa !43
  %51 = getelementptr inbounds nuw %struct.gif_dest_struct, ptr %50, i32 0, i32 9
  %52 = load i16, ptr %51, align 4, !tbaa !79
  %53 = sext i16 %52 to i32
  %54 = add nsw i32 %53, 2
  %55 = trunc i32 %54 to i16
  %56 = load ptr, ptr %7, align 8, !tbaa !43
  %57 = getelementptr inbounds nuw %struct.gif_dest_struct, ptr %56, i32 0, i32 12
  store i16 %55, ptr %57, align 2, !tbaa !77
  br label %58

58:                                               ; preds = %45, %40
  br label %59

59:                                               ; preds = %58
  %60 = load i32, ptr %9, align 4, !tbaa !9
  %61 = add i32 %60, -1
  store i32 %61, ptr %9, align 4, !tbaa !9
  br label %21, !llvm.loop !80

62:                                               ; preds = %21
  call void @llvm.lifetime.end.p0(i64 2, ptr %10) #5
  call void @llvm.lifetime.end.p0(i64 4, ptr %9) #5
  call void @llvm.lifetime.end.p0(i64 8, ptr %8) #5
  call void @llvm.lifetime.end.p0(i64 8, ptr %7) #5
  ret void
}