; Function Attrs: nounwind uwtable
define internal void @put_raw_pixel_rows(ptr noundef readonly captures(none) %0, ptr noundef captures(none) %1, i32 %2) #0 {
  %4 = getelementptr inbounds nuw i8, ptr %0, i64 136
  %5 = load i32, ptr %4, align 8, !tbaa !55
  %.not15 = icmp eq i32 %5, 0
  br i1 %.not15, label %._crit_edge, label %.lr.ph

.lr.ph:                                           ; preds = %3
  %6 = getelementptr inbounds nuw i8, ptr %1, i64 40
  %7 = load ptr, ptr %6, align 8, !tbaa !56
  %8 = load ptr, ptr %7, align 8, !tbaa !71
  %9 = getelementptr inbounds nuw i8, ptr %1, i64 114
  %10 = getelementptr inbounds nuw i8, ptr %1, i64 84
  %11 = getelementptr inbounds nuw i8, ptr %1, i64 108
  br label %12

12:                                               ; preds = %.lr.ph, %25
  %.017 = phi ptr [ %8, %.lr.ph ], [ %13, %25 ]
  %.01416 = phi i32 [ %5, %.lr.ph ], [ %26, %25 ]
  %13 = getelementptr inbounds nuw i8, ptr %.017, i64 1
  %14 = load i8, ptr %.017, align 1, !tbaa !35
  %15 = zext i8 %14 to i16
  tail call fastcc void @output(ptr noundef nonnull %1, i16 noundef signext %15)
  %16 = load i16, ptr %9, align 2, !tbaa !81
  %17 = load i16, ptr %10, align 4, !tbaa !78
  %18 = icmp slt i16 %16, %17
  br i1 %18, label %19, label %21

19:                                               ; preds = %12
  %20 = add nsw i16 %16, 1
  br label %25

21:                                               ; preds = %12
  %22 = load i16, ptr %11, align 4, !tbaa !75
  tail call fastcc void @output(ptr noundef nonnull %1, i16 noundef signext %22)
  %23 = load i16, ptr %11, align 4, !tbaa !75
  %24 = add i16 %23, 2
  br label %25

25:                                               ; preds = %19, %21
  %storemerge = phi i16 [ %24, %21 ], [ %20, %19 ]
  store i16 %storemerge, ptr %9, align 2, !tbaa !81
  %26 = add i32 %.01416, -1
  %.not = icmp eq i32 %26, 0
  br i1 %.not, label %._crit_edge, label %12, !llvm.loop !82

._crit_edge:                                      ; preds = %25, %3
  ret void
}